target datalayout = "e-m:e-p270:32:32-p271:32:32-p272:64:64-i64:64-i128:128-f80:128-n8:16:32:64-S128"
target triple = "x86_64-pc-linux-gnu"

%struct.evp_pkey_st = type { i32, i32, ptr, ptr, ptr, %union.legacy_pkey_st, %union.legacy_pkey_st, %struct.CRYPTO_REF_COUNT, ptr, ptr, i32, i8, %struct.crypto_ex_data_st, ptr, ptr, i64, ptr, i64, %struct.anon }
%union.legacy_pkey_st = type { ptr }
%struct.CRYPTO_REF_COUNT = type { i32 }
%struct.crypto_ex_data_st = type { ptr, ptr }
%struct.anon = type { i32, i32, i32 }

; Function Attrs: nounwind uwtable
define i32 @EVP_PKEY_save_parameters(ptr noundef %0, i32 noundef %1) #0 {
  %3 = alloca i32, align 4
  %4 = alloca ptr, align 8
  %5 = alloca i32, align 4
  %6 = alloca i32, align 4
  %7 = alloca i32, align 4
  store ptr %0, ptr %4, align 8, !tbaa !3
  store i32 %1, ptr %5, align 4, !tbaa !8
  %8 = load ptr, ptr %4, align 8, !tbaa !3
  %9 = getelementptr inbounds nuw %struct.evp_pkey_st, ptr %8, i32 0, i32 0
  %10 = load i32, ptr %9, align 8, !tbaa !29
  %11 = icmp eq i32 %10, 116
  br i1 %11, label %12, label %24

12:                                               ; preds = %2
  call void @llvm.lifetime.start.p0(i64 4, ptr %6) #8
  %13 = load ptr, ptr %4, align 8, !tbaa !3
  %14 = getelementptr inbounds nuw %struct.evp_pkey_st, ptr %13, i32 0, i32 10
  %15 = load i32, ptr %14, align 8, !tbaa !30
  store i32 %15, ptr %6, align 4, !tbaa !8
  %16 = load i32, ptr %5, align 4, !tbaa !8
  %17 = icmp sge i32 %16, 0
  br i1 %17, label %18, label %22

18:                                               ; preds = %12
  %19 = load i32, ptr %5, align 4, !tbaa !8
  %20 = load ptr, ptr %4, align 8, !tbaa !3
  %21 = getelementptr inbounds nuw %struct.evp_pkey_st, ptr %20, i32 0, i32 10
  store i32 %19, ptr %21, align 8, !tbaa !30
  br label %22

22:                                               ; preds = %18, %12
  %23 = load i32, ptr %6, align 4, !tbaa !8
  store i32 %23, ptr %3, align 4
  call void @llvm.lifetime.end.p0(i64 4, ptr %6) #8
  br label %42

24:                                               ; preds = %2
  %25 = load ptr, ptr %4, align 8, !tbaa !3
  %26 = getelementptr inbounds nuw %struct.evp_pkey_st, ptr %25, i32 0, i32 0
  %27 = load i32, ptr %26, align 8, !tbaa !29
  %28 = icmp eq i32 %27, 408
  br i1 %28, label %29, label %41

29:                                               ; preds = %24
  call void @llvm.lifetime.start.p0(i64 4, ptr %7) #8
  %30 = load ptr, ptr %4, align 8, !tbaa !3
  %31 = getelementptr inbounds nuw %struct.evp_pkey_st, ptr %30, i32 0, i32 10
  %32 = load i32, ptr %31, align 8, !tbaa !30
  store i32 %32, ptr %7, align 4, !tbaa !8
  %33 = load i32, ptr %5, align 4, !tbaa !8
  %34 = icmp sge i32 %33, 0
  br i1 %34, label %35, label %39

35:                                               ; preds = %29
  %36 = load i32, ptr %5, align 4, !tbaa !8
  %37 = load ptr, ptr %4, align 8, !tbaa !3
  %38 = getelementptr inbounds nuw %struct.evp_pkey_st, ptr %37, i32 0, i32 10
  store i32 %36, ptr %38, align 8, !tbaa !30
  br label %39

39:                                               ; preds = %35, %29
  %40 = load i32, ptr %7, align 4, !tbaa !8
  store i32 %40, ptr %3, align 4
  call void @llvm.lifetime.end.p0(i64 4, ptr %7) #8
  br label %42

41:                                               ; preds = %24
  store i32 0, ptr %3, align 4
  br label %42

42:                                               ; preds = %41, %39, %22
  %43 = load i32, ptr %3, align 4
  ret i32 %43
}