; Function Attrs: mustprogress nofree norecurse nosync nounwind willreturn memory(argmem: readwrite) uwtable
define i32 @EVP_PKEY_save_parameters(ptr noundef captures(none) %0, i32 noundef %1) local_unnamed_addr #3 {
  %3 = load i32, ptr %0, align 8, !tbaa !26
  switch i32 %3, label %14 [
    i32 116, label %4
    i32 408, label %9
  ]

4:                                                ; preds = %2
  %5 = getelementptr inbounds nuw i8, ptr %0, i64 72
  %6 = load i32, ptr %5, align 8, !tbaa !27
  %7 = icmp sgt i32 %1, -1
  br i1 %7, label %8, label %14

8:                                                ; preds = %4
  store i32 %1, ptr %5, align 8, !tbaa !27
  br label %14

9:                                                ; preds = %2
  %10 = getelementptr inbounds nuw i8, ptr %0, i64 72
  %11 = load i32, ptr %10, align 8, !tbaa !27
  %12 = icmp sgt i32 %1, -1
  br i1 %12, label %13, label %14

13:                                               ; preds = %9
  store i32 %1, ptr %10, align 8, !tbaa !27
  br label %14

14:                                               ; preds = %2, %9, %13, %4, %8
  %.0 = phi i32 [ %6, %8 ], [ %6, %4 ], [ %11, %13 ], [ %11, %9 ], [ 0, %2 ]
  ret i32 %.0
}